; Function Attrs: nounwind uwtable
define dso_local ptr @acct_storage_p_get_accts(ptr noundef %0, i32 noundef %1, ptr noundef %2) local_unnamed_addr #0 {
  %4 = alloca %struct.persist_msg_t, align 8
  %5 = alloca %struct.persist_msg_t, align 8
  %6 = alloca %struct.dbd_cond_msg_t, align 8
  call void @llvm.lifetime.start.p0(i64 24, ptr nonnull %4) #11
  %7 = getelementptr inbounds nuw i8, ptr %4, i64 16
  store i64 0, ptr %7, align 8
  call void @llvm.lifetime.start.p0(i64 24, ptr nonnull %5) #11
  call void @llvm.memset.p0.i64(ptr noundef nonnull align 8 dereferenceable(24) %5, i8 0, i64 24, i1 false)
  call void @llvm.lifetime.start.p0(i64 8, ptr nonnull %6) #11
  store ptr %2, ptr %6, align 8
  %8 = getelementptr inbounds nuw i8, ptr %4, i64 16
  store i16 1409, ptr %8, align 8
  store ptr %0, ptr %4, align 8
  %9 = getelementptr inbounds nuw i8, ptr %4, i64 8
  store ptr %6, ptr %9, align 8
  %10 = call i32 @dbd_conn_send_recv(i16 noundef zeroext 11008, ptr noundef nonnull %4, ptr noundef nonnull %5) #11
  %.not = icmp eq i32 %10, 0
  br i1 %.not, label %14, label %11

11:                                               ; preds = %3
  %12 = call ptr @slurm_strerror(i32 noundef %10) #11
  %13 = call i32 (ptr, ...) @slurm_error(ptr noundef nonnull @.str.38, ptr noundef %12) #11
  br label %42

14:                                               ; preds = %3
  %15 = getelementptr inbounds nuw i8, ptr %5, i64 16
  %16 = load i16, ptr %15, align 8
  switch i16 %16, label %35 [
    i16 1433, label %17
    i16 1416, label %38
  ]

17:                                               ; preds = %14
  %18 = getelementptr inbounds nuw i8, ptr %5, i64 8
  %19 = load ptr, ptr %18, align 8
  %20 = getelementptr inbounds nuw i8, ptr %19, i64 12
  %21 = load i32, ptr %20, align 4
  %22 = icmp eq i32 %21, 0
  br i1 %22, label %23, label %30

23:                                               ; preds = %17
  %24 = call i32 @slurm_get_log_level() #11
  %25 = icmp sgt i32 %24, 2
  br i1 %25, label %26, label %28

26:                                               ; preds = %23
  %27 = load ptr, ptr %19, align 8
  call void (i32, ptr, ...) @slurm_log_var(i32 noundef 3, ptr noundef nonnull @.str.24, ptr noundef nonnull @plugin_type, ptr noundef nonnull @__func__.acct_storage_p_get_accts, ptr noundef %27) #11
  br label %28

28:                                               ; preds = %26, %23
  %29 = call ptr @slurm_list_create(ptr noundef null) #11
  br label %34

30:                                               ; preds = %17
  %31 = tail call ptr @__errno_location() #12
  store i32 %21, ptr %31, align 4
  %32 = load ptr, ptr %19, align 8
  %33 = call i32 (ptr, ...) @slurm_error(ptr noundef nonnull @.str.7, ptr noundef %32) #11
  br label %34

34:                                               ; preds = %30, %28
  %.1 = phi ptr [ %29, %28 ], [ null, %30 ]
  call void @slurm_persist_free_rc_msg(ptr noundef nonnull %19) #11
  br label %42

35:                                               ; preds = %14
  %36 = zext i16 %16 to i32
  %37 = call i32 (ptr, ...) @slurm_error(ptr noundef nonnull @.str.39, i32 noundef %36) #11
  br label %42

38:                                               ; preds = %14
  %39 = getelementptr inbounds nuw i8, ptr %5, i64 8
  %40 = load ptr, ptr %39, align 8
  %41 = load ptr, ptr %40, align 8
  store ptr null, ptr %40, align 8
  call void @slurm_slurmdbd_free_list_msg(ptr noundef nonnull %40) #11
  br label %42

42:                                               ; preds = %34, %38, %35, %11
  %.0 = phi ptr [ null, %11 ], [ %.1, %34 ], [ null, %35 ], [ %41, %38 ]
  call void @llvm.lifetime.end.p0(i64 8, ptr nonnull %6) #11
  call void @llvm.lifetime.end.p0(i64 24, ptr nonnull %5) #11
  call void @llvm.lifetime.end.p0(i64 24, ptr nonnull %4) #11
  ret ptr %.0
}